target datalayout = "e-m:e-p270:32:32-p271:32:32-p272:64:64-i64:64-i128:128-f80:128-n8:16:32:64-S128"
target triple = "x86_64-pc-linux-gnu"

%struct.FunctionCallInfoBaseData = type { ptr, ptr, ptr, i32, i8, i16, [0 x %struct.NullableDatum] }
%struct.NullableDatum = type { i64, i8 }
%struct.varattrib_1b = type { i8, [0 x i8] }
%struct.anon = type { i32, [0 x i8] }
%struct.inet_struct = type { i8, i8, [16 x i8] }

; Function Attrs: inlinehint nounwind uwtable
define internal ptr @DatumGetPointer(i64 noundef %0) #2 {
  %2 = alloca i64, align 8
  store i64 %0, ptr %2, align 8
  %3 = load i64, ptr %2, align 8
  %4 = inttoptr i64 %3 to ptr
  ret ptr %4
}

; Function Attrs: inlinehint nounwind uwtable
define internal i64 @BoolGetDatum(i1 noundef zeroext %0) #2 {
  %2 = alloca i8, align 1
  %3 = zext i1 %0 to i8
  store i8 %3, ptr %2, align 1
  %4 = load i8, ptr %2, align 1, !range !4, !noundef !5
  %5 = trunc i8 %4 to i1
  %6 = select i1 %5, i32 1, i32 0
  %7 = sext i32 %6 to i64
  ret i64 %7
}

; Function Attrs: nounwind uwtable
define dso_local i32 @bitncmp(ptr noundef %0, ptr noundef %1, i32 noundef %2) #0 {
  %4 = alloca i32, align 4
  %5 = alloca ptr, align 8
  %6 = alloca ptr, align 8
  %7 = alloca i32, align 4
  %8 = alloca i32, align 4
  %9 = alloca i32, align 4
  %10 = alloca i32, align 4
  %11 = alloca i32, align 4
  %12 = alloca i32, align 4
  store ptr %0, ptr %5, align 8
  store ptr %1, ptr %6, align 8
  store i32 %2, ptr %7, align 4
  call void @llvm.lifetime.start.p0(i64 4, ptr %8) #8
  call void @llvm.lifetime.start.p0(i64 4, ptr %9) #8
  call void @llvm.lifetime.start.p0(i64 4, ptr %10) #8
  call void @llvm.lifetime.start.p0(i64 4, ptr %11) #8
  %13 = load i32, ptr %7, align 4
  %14 = sdiv i32 %13, 8
  store i32 %14, ptr %11, align 4
  %15 = load ptr, ptr %5, align 8
  %16 = load ptr, ptr %6, align 8
  %17 = load i32, ptr %11, align 4
  %18 = sext i32 %17 to i64
  %19 = call i32 @memcmp(ptr noundef %15, ptr noundef %16, i64 noundef %18) #9
  store i32 %19, ptr %10, align 4
  %20 = load i32, ptr %10, align 4
  %21 = icmp ne i32 %20, 0
  br i1 %21, label %26, label %22

22:                                               ; preds = %3
  %23 = load i32, ptr %7, align 4
  %24 = srem i32 %23, 8
  %25 = icmp eq i32 %24, 0
  br i1 %25, label %26, label %28

26:                                               ; preds = %22, %3
  %27 = load i32, ptr %10, align 4
  store i32 %27, ptr %4, align 4
  store i32 1, ptr %12, align 4
  br label %73

28:                                               ; preds = %22
  %29 = load ptr, ptr %5, align 8
  %30 = load i32, ptr %11, align 4
  %31 = sext i32 %30 to i64
  %32 = getelementptr inbounds i8, ptr %29, i64 %31
  %33 = load i8, ptr %32, align 1
  %34 = zext i8 %33 to i32
  store i32 %34, ptr %8, align 4
  %35 = load ptr, ptr %6, align 8
  %36 = load i32, ptr %11, align 4
  %37 = sext i32 %36 to i64
  %38 = getelementptr inbounds i8, ptr %35, i64 %37
  %39 = load i8, ptr %38, align 1
  %40 = zext i8 %39 to i32
  store i32 %40, ptr %9, align 4
  %41 = load i32, ptr %7, align 4
  %42 = srem i32 %41, 8
  store i32 %42, ptr %11, align 4
  br label %43

43:                                               ; preds = %69, %28
  %44 = load i32, ptr %11, align 4
  %45 = icmp sgt i32 %44, 0
  br i1 %45, label %46, label %72

46:                                               ; preds = %43
  %47 = load i32, ptr %8, align 4
  %48 = trunc i32 %47 to i8
  %49 = zext i8 %48 to i32
  %50 = and i32 %49, 128
  %51 = load i32, ptr %9, align 4
  %52 = trunc i32 %51 to i8
  %53 = zext i8 %52 to i32
  %54 = and i32 %53, 128
  %55 = icmp ne i32 %50, %54
  br i1 %55, label %56, label %64

56:                                               ; preds = %46
  %57 = load i32, ptr %8, align 4
  %58 = trunc i32 %57 to i8
  %59 = zext i8 %58 to i32
  %60 = and i32 %59, 128
  %61 = icmp ne i32 %60, 0
  br i1 %61, label %62, label %63

62:                                               ; preds = %56
  store i32 1, ptr %4, align 4
  store i32 1, ptr %12, align 4
  br label %73

63:                                               ; preds = %56
  store i32 -1, ptr %4, align 4
  store i32 1, ptr %12, align 4
  br label %73

64:                                               ; preds = %46
  %65 = load i32, ptr %8, align 4
  %66 = shl i32 %65, 1
  store i32 %66, ptr %8, align 4
  %67 = load i32, ptr %9, align 4
  %68 = shl i32 %67, 1
  store i32 %68, ptr %9, align 4
  br label %69

69:                                               ; preds = %64
  %70 = load i32, ptr %11, align 4
  %71 = add i32 %70, -1
  store i32 %71, ptr %11, align 4
  br label %43, !llvm.loop !9

72:                                               ; preds = %43
  store i32 0, ptr %4, align 4
  store i32 1, ptr %12, align 4
  br label %73

73:                                               ; preds = %72, %63, %62, %26
  call void @llvm.lifetime.end.p0(i64 4, ptr %11) #8
  call void @llvm.lifetime.end.p0(i64 4, ptr %10) #8
  call void @llvm.lifetime.end.p0(i64 4, ptr %9) #8
  call void @llvm.lifetime.end.p0(i64 4, ptr %8) #8
  %74 = load i32, ptr %4, align 4
  ret i32 %74
}

; Function Attrs: inlinehint nounwind uwtable
define internal ptr @DatumGetInetPP(i64 noundef %0) #2 {
  %2 = alloca i64, align 8
  store i64 %0, ptr %2, align 8
  %3 = load i64, ptr %2, align 8
  %4 = call ptr @DatumGetPointer(i64 noundef %3)
  %5 = call ptr @pg_detoast_datum_packed(ptr noundef %4)
  ret ptr %5
}

; Function Attrs: nounwind uwtable
define dso_local i64 @network_overlap(ptr noundef %0) #0 {
  %2 = alloca i64, align 8
  %3 = alloca ptr, align 8
  %4 = alloca ptr, align 8
  %5 = alloca ptr, align 8
  %6 = alloca i32, align 4
  store ptr %0, ptr %3, align 8
  call void @llvm.lifetime.start.p0(i64 8, ptr %4) #8
  %7 = load ptr, ptr %3, align 8
  %8 = getelementptr inbounds nuw %struct.FunctionCallInfoBaseData, ptr %7, i32 0, i32 6
  %9 = getelementptr inbounds [0 x %struct.NullableDatum], ptr %8, i64 0, i64 0
  %10 = getelementptr inbounds nuw %struct.NullableDatum, ptr %9, i32 0, i32 0
  %11 = load i64, ptr %10, align 8
  %12 = call ptr @DatumGetInetPP(i64 noundef %11)
  store ptr %12, ptr %4, align 8
  call void @llvm.lifetime.start.p0(i64 8, ptr %5) #8
  %13 = load ptr, ptr %3, align 8
  %14 = getelementptr inbounds nuw %struct.FunctionCallInfoBaseData, ptr %13, i32 0, i32 6
  %15 = getelementptr inbounds [0 x %struct.NullableDatum], ptr %14, i64 0, i64 1
  %16 = getelementptr inbounds nuw %struct.NullableDatum, ptr %15, i32 0, i32 0
  %17 = load i64, ptr %16, align 8
  %18 = call ptr @DatumGetInetPP(i64 noundef %17)
  store ptr %18, ptr %5, align 8
  %19 = load ptr, ptr %4, align 8
  %20 = getelementptr inbounds nuw %struct.varattrib_1b, ptr %19, i32 0, i32 0
  %21 = load i8, ptr %20, align 1
  %22 = zext i8 %21 to i32
  %23 = and i32 %22, 1
  %24 = icmp eq i32 %23, 1
  br i1 %24, label %25, label %29

25:                                               ; preds = %1
  %26 = load ptr, ptr %4, align 8
  %27 = getelementptr inbounds nuw %struct.varattrib_1b, ptr %26, i32 0, i32 1
  %28 = getelementptr inbounds [0 x i8], ptr %27, i64 0, i64 0
  br label %33

29:                                               ; preds = %1
  %30 = load ptr, ptr %4, align 8
  %31 = getelementptr inbounds nuw %struct.anon, ptr %30, i32 0, i32 1
  %32 = getelementptr inbounds [0 x i8], ptr %31, i64 0, i64 0
  br label %33

33:                                               ; preds = %29, %25
  %34 = phi ptr [ %28, %25 ], [ %32, %29 ]
  %35 = getelementptr inbounds nuw %struct.inet_struct, ptr %34, i32 0, i32 0
  %36 = load i8, ptr %35, align 1
  %37 = zext i8 %36 to i32
  %38 = load ptr, ptr %5, align 8
  %39 = getelementptr inbounds nuw %struct.varattrib_1b, ptr %38, i32 0, i32 0
  %40 = load i8, ptr %39, align 1
  %41 = zext i8 %40 to i32
  %42 = and i32 %41, 1
  %43 = icmp eq i32 %42, 1
  br i1 %43, label %44, label %48

44:                                               ; preds = %33
  %45 = load ptr, ptr %5, align 8
  %46 = getelementptr inbounds nuw %struct.varattrib_1b, ptr %45, i32 0, i32 1
  %47 = getelementptr inbounds [0 x i8], ptr %46, i64 0, i64 0
  br label %52

48:                                               ; preds = %33
  %49 = load ptr, ptr %5, align 8
  %50 = getelementptr inbounds nuw %struct.anon, ptr %49, i32 0, i32 1
  %51 = getelementptr inbounds [0 x i8], ptr %50, i64 0, i64 0
  br label %52

52:                                               ; preds = %48, %44
  %53 = phi ptr [ %47, %44 ], [ %51, %48 ]
  %54 = getelementptr inbounds nuw %struct.inet_struct, ptr %53, i32 0, i32 0
  %55 = load i8, ptr %54, align 1
  %56 = zext i8 %55 to i32
  %57 = icmp eq i32 %37, %56
  br i1 %57, label %58, label %179

58:                                               ; preds = %52
  %59 = load ptr, ptr %4, align 8
  %60 = getelementptr inbounds nuw %struct.varattrib_1b, ptr %59, i32 0, i32 0
  %61 = load i8, ptr %60, align 1
  %62 = zext i8 %61 to i32
  %63 = and i32 %62, 1
  %64 = icmp eq i32 %63, 1
  br i1 %64, label %65, label %69

65:                                               ; preds = %58
  %66 = load ptr, ptr %4, align 8
  %67 = getelementptr inbounds nuw %struct.varattrib_1b, ptr %66, i32 0, i32 1
  %68 = getelementptr inbounds [0 x i8], ptr %67, i64 0, i64 0
  br label %73

69:                                               ; preds = %58
  %70 = load ptr, ptr %4, align 8
  %71 = getelementptr inbounds nuw %struct.anon, ptr %70, i32 0, i32 1
  %72 = getelementptr inbounds [0 x i8], ptr %71, i64 0, i64 0
  br label %73

73:                                               ; preds = %69, %65
  %74 = phi ptr [ %68, %65 ], [ %72, %69 ]
  %75 = getelementptr inbounds nuw %struct.inet_struct, ptr %74, i32 0, i32 2
  %76 = getelementptr inbounds [16 x i8], ptr %75, i64 0, i64 0
  %77 = load ptr, ptr %5, align 8
  %78 = getelementptr inbounds nuw %struct.varattrib_1b, ptr %77, i32 0, i32 0
  %79 = load i8, ptr %78, align 1
  %80 = zext i8 %79 to i32
  %81 = and i32 %80, 1
  %82 = icmp eq i32 %81, 1
  br i1 %82, label %83, label %87

83:                                               ; preds = %73
  %84 = load ptr, ptr %5, align 8
  %85 = getelementptr inbounds nuw %struct.varattrib_1b, ptr %84, i32 0, i32 1
  %86 = getelementptr inbounds [0 x i8], ptr %85, i64 0, i64 0
  br label %91

87:                                               ; preds = %73
  %88 = load ptr, ptr %5, align 8
  %89 = getelementptr inbounds nuw %struct.anon, ptr %88, i32 0, i32 1
  %90 = getelementptr inbounds [0 x i8], ptr %89, i64 0, i64 0
  br label %91

91:                                               ; preds = %87, %83
  %92 = phi ptr [ %86, %83 ], [ %90, %87 ]
  %93 = getelementptr inbounds nuw %struct.inet_struct, ptr %92, i32 0, i32 2
  %94 = getelementptr inbounds [16 x i8], ptr %93, i64 0, i64 0
  %95 = load ptr, ptr %4, align 8
  %96 = getelementptr inbounds nuw %struct.varattrib_1b, ptr %95, i32 0, i32 0
  %97 = load i8, ptr %96, align 1
  %98 = zext i8 %97 to i32
  %99 = and i32 %98, 1
  %100 = icmp eq i32 %99, 1
  br i1 %100, label %101, label %105

101:                                              ; preds = %91
  %102 = load ptr, ptr %4, align 8
  %103 = getelementptr inbounds nuw %struct.varattrib_1b, ptr %102, i32 0, i32 1
  %104 = getelementptr inbounds [0 x i8], ptr %103, i64 0, i64 0
  br label %109

105:                                              ; preds = %91
  %106 = load ptr, ptr %4, align 8
  %107 = getelementptr inbounds nuw %struct.anon, ptr %106, i32 0, i32 1
  %108 = getelementptr inbounds [0 x i8], ptr %107, i64 0, i64 0
  br label %109

109:                                              ; preds = %105, %101
  %110 = phi ptr [ %104, %101 ], [ %108, %105 ]
  %111 = getelementptr inbounds nuw %struct.inet_struct, ptr %110, i32 0, i32 1
  %112 = load i8, ptr %111, align 1
  %113 = zext i8 %112 to i32
  %114 = load ptr, ptr %5, align 8
  %115 = getelementptr inbounds nuw %struct.varattrib_1b, ptr %114, i32 0, i32 0
  %116 = load i8, ptr %115, align 1
  %117 = zext i8 %116 to i32
  %118 = and i32 %117, 1
  %119 = icmp eq i32 %118, 1
  br i1 %119, label %120, label %124

120:                                              ; preds = %109
  %121 = load ptr, ptr %5, align 8
  %122 = getelementptr inbounds nuw %struct.varattrib_1b, ptr %121, i32 0, i32 1
  %123 = getelementptr inbounds [0 x i8], ptr %122, i64 0, i64 0
  br label %128

124:                                              ; preds = %109
  %125 = load ptr, ptr %5, align 8
  %126 = getelementptr inbounds nuw %struct.anon, ptr %125, i32 0, i32 1
  %127 = getelementptr inbounds [0 x i8], ptr %126, i64 0, i64 0
  br label %128

128:                                              ; preds = %124, %120
  %129 = phi ptr [ %123, %120 ], [ %127, %124 ]
  %130 = getelementptr inbounds nuw %struct.inet_struct, ptr %129, i32 0, i32 1
  %131 = load i8, ptr %130, align 1
  %132 = zext i8 %131 to i32
  %133 = icmp slt i32 %113, %132
  br i1 %133, label %134, label %154

134:                                              ; preds = %128
  %135 = load ptr, ptr %4, align 8
  %136 = getelementptr inbounds nuw %struct.varattrib_1b, ptr %135, i32 0, i32 0
  %137 = load i8, ptr %136, align 1
  %138 = zext i8 %137 to i32
  %139 = and i32 %138, 1
  %140 = icmp eq i32 %139, 1
  br i1 %140, label %141, label %145

141:                                              ; preds = %134
  %142 = load ptr, ptr %4, align 8
  %143 = getelementptr inbounds nuw %struct.varattrib_1b, ptr %142, i32 0, i32 1
  %144 = getelementptr inbounds [0 x i8], ptr %143, i64 0, i64 0
  br label %149

145:                                              ; preds = %134
  %146 = load ptr, ptr %4, align 8
  %147 = getelementptr inbounds nuw %struct.anon, ptr %146, i32 0, i32 1
  %148 = getelementptr inbounds [0 x i8], ptr %147, i64 0, i64 0
  br label %149

149:                                              ; preds = %145, %141
  %150 = phi ptr [ %144, %141 ], [ %148, %145 ]
  %151 = getelementptr inbounds nuw %struct.inet_struct, ptr %150, i32 0, i32 1
  %152 = load i8, ptr %151, align 1
  %153 = zext i8 %152 to i32
  br label %174

154:                                              ; preds = %128
  %155 = load ptr, ptr %5, align 8
  %156 = getelementptr inbounds nuw %struct.varattrib_1b, ptr %155, i32 0, i32 0
  %157 = load i8, ptr %156, align 1
  %158 = zext i8 %157 to i32
  %159 = and i32 %158, 1
  %160 = icmp eq i32 %159, 1
  br i1 %160, label %161, label %165

161:                                              ; preds = %154
  %162 = load ptr, ptr %5, align 8
  %163 = getelementptr inbounds nuw %struct.varattrib_1b, ptr %162, i32 0, i32 1
  %164 = getelementptr inbounds [0 x i8], ptr %163, i64 0, i64 0
  br label %169

165:                                              ; preds = %154
  %166 = load ptr, ptr %5, align 8
  %167 = getelementptr inbounds nuw %struct.anon, ptr %166, i32 0, i32 1
  %168 = getelementptr inbounds [0 x i8], ptr %167, i64 0, i64 0
  br label %169

169:                                              ; preds = %165, %161
  %170 = phi ptr [ %164, %161 ], [ %168, %165 ]
  %171 = getelementptr inbounds nuw %struct.inet_struct, ptr %170, i32 0, i32 1
  %172 = load i8, ptr %171, align 1
  %173 = zext i8 %172 to i32
  br label %174

174:                                              ; preds = %169, %149
  %175 = phi i32 [ %153, %149 ], [ %173, %169 ]
  %176 = call i32 @bitncmp(ptr noundef %76, ptr noundef %94, i32 noundef %175)
  %177 = icmp eq i32 %176, 0
  %178 = call i64 @BoolGetDatum(i1 noundef zeroext %177)
  store i64 %178, ptr %2, align 8
  store i32 1, ptr %6, align 4
  br label %181

179:                                              ; preds = %52
  %180 = call i64 @BoolGetDatum(i1 noundef zeroext false)
  store i64 %180, ptr %2, align 8
  store i32 1, ptr %6, align 4
  br label %181

181:                                              ; preds = %179, %174
  call void @llvm.lifetime.end.p0(i64 8, ptr %5) #8
  call void @llvm.lifetime.end.p0(i64 8, ptr %4) #8
  %182 = load i64, ptr %2, align 8
  ret i64 %182
}