; Function Attrs: nounwind uwtable
define dso_local range(i64 0, 2) i64 @network_overlap(ptr noundef readonly captures(none) %0) local_unnamed_addr #0 {
  %2 = getelementptr inbounds nuw i8, ptr %0, i64 32
  %3 = load i64, ptr %2, align 8
  %4 = inttoptr i64 %3 to ptr
  %5 = tail call ptr @pg_detoast_datum_packed(ptr noundef %4) #14
  %6 = getelementptr inbounds nuw i8, ptr %0, i64 48
  %7 = load i64, ptr %6, align 8
  %8 = inttoptr i64 %7 to ptr
  %9 = tail call ptr @pg_detoast_datum_packed(ptr noundef %8) #14
  %10 = load i8, ptr %5, align 1
  %11 = and i8 %10, 1
  %.not = icmp eq i8 %11, 0
  %.v = select i1 %.not, i64 4, i64 1
  %12 = getelementptr inbounds nuw i8, ptr %5, i64 %.v
  %13 = load i8, ptr %12, align 1
  %14 = load i8, ptr %9, align 1
  %15 = and i8 %14, 1
  %.not28 = icmp eq i8 %15, 0
  %.v29 = select i1 %.not28, i64 4, i64 1
  %16 = getelementptr inbounds nuw i8, ptr %9, i64 %.v29
  %17 = load i8, ptr %16, align 1
  %18 = icmp eq i8 %13, %17
  br i1 %18, label %19, label %bitncmp.exit

19:                                               ; preds = %1
  %20 = getelementptr inbounds nuw i8, ptr %12, i64 2
  %21 = getelementptr inbounds nuw i8, ptr %16, i64 2
  %22 = getelementptr inbounds nuw i8, ptr %12, i64 1
  %23 = load i8, ptr %22, align 1
  %24 = getelementptr inbounds nuw i8, ptr %16, i64 1
  %25 = load i8, ptr %24, align 1
  %. = tail call i8 @llvm.umin.i8(i8 %23, i8 %25)
  %26 = lshr i8 %., 3
  %27 = zext nneg i8 %26 to i64
  %bcmp = tail call i32 @bcmp(ptr nonnull %20, ptr nonnull %21, i64 %27)
  %.not.i = icmp eq i32 %bcmp, 0
  br i1 %.not.i, label %28, label %bitncmp.exit

28:                                               ; preds = %19
  %29 = and i8 %., 7
  %.not32 = icmp eq i8 %29, 0
  br i1 %.not32, label %bitncmp.exit, label %.lr.ph.preheader.i

.lr.ph.preheader.i:                               ; preds = %28
  %.zext31 = zext nneg i8 %29 to i32
  %30 = getelementptr inbounds nuw i8, ptr %21, i64 %27
  %31 = load i8, ptr %30, align 1
  %32 = zext i8 %31 to i32
  %33 = getelementptr inbounds nuw i8, ptr %20, i64 %27
  %34 = load i8, ptr %33, align 1
  %35 = zext i8 %34 to i32
  br label %.lr.ph.i

.lr.ph.i:                                         ; preds = %38, %.lr.ph.preheader.i
  %.028.i = phi i32 [ %41, %38 ], [ %.zext31, %.lr.ph.preheader.i ]
  %.02027.i = phi i32 [ %40, %38 ], [ %32, %.lr.ph.preheader.i ]
  %.02126.i = phi i32 [ %39, %38 ], [ %35, %.lr.ph.preheader.i ]
  %36 = xor i32 %.02126.i, %.02027.i
  %37 = and i32 %36, 128
  %.not24.i = icmp eq i32 %37, 0
  br i1 %.not24.i, label %38, label %bitncmp.exit

38:                                               ; preds = %.lr.ph.i
  %39 = shl i32 %.02126.i, 1
  %40 = shl i32 %.02027.i, 1
  %41 = add nsw i32 %.028.i, -1
  %42 = icmp sgt i32 %.028.i, 1
  br i1 %42, label %.lr.ph.i, label %bitncmp.exit, !llvm.loop !23

bitncmp.exit:                                     ; preds = %38, %.lr.ph.i, %28, %19, %1
  %.0 = phi i64 [ 0, %1 ], [ 1, %28 ], [ 0, %19 ], [ 0, %.lr.ph.i ], [ 1, %38 ]
  ret i64 %.0
}